; Function Attrs: mustprogress uwtable
define void @_ZNK4cvc58internal8TypeNode7getNameB5cxx11Ev(ptr dead_on_unwind noalias writable sret(%"class.std::__cxx11::basic_string") align 8 %0, ptr noundef nonnull readonly align 8 captures(none) dereferenceable(8) %1) local_unnamed_addr #4 align 2 {
  %3 = alloca %"class.cvc5::internal::expr::Attribute.144", align 1
  %4 = load ptr, ptr %1, align 8, !tbaa !3, !noalias !250
  %5 = getelementptr inbounds nuw i8, ptr %4, i64 16
  %6 = load ptr, ptr %5, align 8, !tbaa !28, !noalias !250
  %7 = getelementptr inbounds nuw i8, ptr %6, i64 80
  %8 = load ptr, ptr %7, align 8, !tbaa !48, !noalias !253
  call void @llvm.lifetime.start.p0(i64 1, ptr nonnull %3) #24, !noalias !253
  call void @_ZNK4cvc58internal4expr4attr16AttributeManager12getAttributeINS1_9AttributeINS2_10VarNameTagENSt7__cxx1112basic_stringIcSt11char_traitsIcESaIcEEEEEEENT_10value_typeEPNS1_9NodeValueERKSE_(ptr dead_on_unwind writable sret(%"class.std::__cxx11::basic_string") align 8 %0, ptr noundef nonnull align 8 dereferenceable(344) %8, ptr noundef %4, ptr noundef nonnull align 1 dereferenceable(1) %3)
  call void @llvm.lifetime.end.p0(i64 1, ptr nonnull %3) #24, !noalias !253
  ret void
}